target datalayout = "e-m:e-p270:32:32-p271:32:32-p272:64:64-i64:64-i128:128-f80:128-n8:16:32:64-S128"
target triple = "x86_64-pc-linux-gnu"

%struct.pointf_s = type { double, double }
%struct.boxf = type { %struct.pointf_s, %struct.pointf_s }
%struct.Agobj_s = type { %struct.Agtag_s, ptr }
%struct.Agtag_s = type { i32, i64 }
%struct.Agraphinfo_t = type { %struct.Agrec_s, ptr, ptr, %struct.boxf, [4 x %struct.pointf_s], i8, i8, i8, i8, i32, double, double, i16, ptr, ptr, ptr, ptr, i32, ptr, ptr, ptr, ptr, i16, i16, i32, ptr, ptr, ptr, ptr, ptr, i32, ptr, ptr, %struct.nlist_t, ptr, ptr, i32, i32, i8, i8, i32, i32, i32, ptr, ptr, ptr, ptr, i8, i8, i8, i8, i8 }
%struct.Agrec_s = type { ptr, ptr }
%struct.nlist_t = type { ptr, i64 }

@.str = private unnamed_addr constant [13 x i8] c"Agraphinfo_t\00", align 1

; Function Attrs: nounwind uwtable
define zeroext i1 @gvLayoutDone(ptr noundef %0) #0 {
  %2 = alloca ptr, align 8
  store ptr %0, ptr %2, align 8, !tbaa !45
  %3 = load ptr, ptr %2, align 8, !tbaa !45
  %4 = call ptr @agbindrec(ptr noundef %3, ptr noundef @.str, i32 noundef 0, i32 noundef 1)
  %5 = icmp ne ptr %4, null
  br i1 %5, label %6, label %13

6:                                                ; preds = %1
  %7 = load ptr, ptr %2, align 8, !tbaa !45
  %8 = getelementptr inbounds nuw %struct.Agobj_s, ptr %7, i32 0, i32 1
  %9 = load ptr, ptr %8, align 8, !tbaa !46
  %10 = getelementptr inbounds nuw %struct.Agraphinfo_t, ptr %9, i32 0, i32 1
  %11 = load ptr, ptr %10, align 8, !tbaa !68
  %12 = icmp ne ptr %11, null
  br label %13

13:                                               ; preds = %6, %1
  %14 = phi i1 [ false, %1 ], [ %12, %6 ]
  ret i1 %14
}