; Function Attrs: nounwind uwtable
define zeroext i1 @gvLayoutDone(ptr noundef %0) local_unnamed_addr #0 {
  %2 = tail call ptr @agbindrec(ptr noundef %0, ptr noundef nonnull @.str, i32 noundef 0, i32 noundef 1) #2
  %.not = icmp eq ptr %2, null
  br i1 %.not, label %9, label %3

3:                                                ; preds = %1
  %4 = getelementptr inbounds nuw i8, ptr %0, i64 16
  %5 = load ptr, ptr %4, align 8, !tbaa !40
  %6 = getelementptr inbounds nuw i8, ptr %5, i64 16
  %7 = load ptr, ptr %6, align 8, !tbaa !61
  %8 = icmp ne ptr %7, null
  br label %9

9:                                                ; preds = %3, %1
  %10 = phi i1 [ false, %1 ], [ %8, %3 ]
  ret i1 %10
}